S'dh3.3'
p0
.VLawrence
p0
.I10
.I2
.I10
.I2
.I2
.I1
.I50
.I0
.I0
.I0
.I6
.S'Ignore'
p0
.S'Ignore'
p0
.S'Ignore'
p0
.S'Ignore'
p0
.S'Ignore'
p0
.S'Ignore'
p0
.I28
.S'Ignore'
p0
.S'Ignore'
p0
.S'Ignore'
p0
.S'Ignore'
p0
.S'Ignore'
p0
.S'Ignore'
p0
.S'Ignore'
p0
.S'Ignore'
p0
.S'Ignore'
p0
.S'Ignore'
p0
.S'Ignore'
p0
.S'Ignore'
p0
.S'Ignore'
p0
.S'Ignore'
p0
.S'Ignore'
p0
.S'Ignore'
p0
.S'Ignore'
p0
.S'Ignore'
p0
.S'Ignore'
p0
.S'Ignore'
p0
.S'Ignore'
p0
.S'Ignore'
p0
.S'Ignore'
p0
.S'Ignore'
p0
.S'Ignore'
p0
.S'Ignore'
p0
.S'Ignore'
p0
.S'Ignore'
p0
.I20
.I16
.S'town1.txt'
p0
.I0
.(lp0
.I11
.(dp0
S'temp_name1'
p1
S'god'
p2
s.